target datalayout = "e-m:e-p270:32:32-p271:32:32-p272:64:64-i64:64-i128:128-f80:128-n8:16:32:64-S128"
target triple = "x86_64-unknown-linux-gnu"

@.str.293 = private unnamed_addr constant [3 x i8] c"%s\00", align 1

; Function Attrs: mustprogress uwtable
define internal void @"_ZZN4pbrt10ParseFilesEPNS_12ParserTargetEN4pstd4spanIKNSt7__cxx1112basic_stringIcSt11char_traitsIcESaIcEEEEEENK3$_0clEPKcPKNS_7FileLocE"(ptr noundef nonnull align 1 dereferenceable(1) %this, ptr noundef %msg, ptr noundef %loc) #1 align 2 {
entry:
  %this.addr = alloca ptr, align 8
  %msg.addr = alloca ptr, align 8
  %loc.addr = alloca ptr, align 8
  store ptr %this, ptr %this.addr, align 8
  store ptr %msg, ptr %msg.addr, align 8
  store ptr %loc, ptr %loc.addr, align 8
  %0 = load ptr, ptr %loc.addr, align 8
  call void @_ZN4pbrt9ErrorExitIJRPKcEEEvPKNS_7FileLocES2_DpOT_(ptr noundef %0, ptr noundef @.str.293, ptr noundef nonnull align 8 dereferenceable(8) %msg.addr) #17
  unreachable
}

; Function Attrs: mustprogress nounwind uwtable
define linkonce_odr dso_local noundef ptr @_ZNKSt9_Any_data9_M_accessEv(ptr noundef nonnull align 8 dereferenceable(16) %this) #2 comdat align 2 {
entry:
  %this.addr = alloca ptr, align 8
  store ptr %this, ptr %this.addr, align 8
  %this1 = load ptr, ptr %this.addr, align 8
  %arrayidx = getelementptr inbounds [16 x i8], ptr %this1, i64 0, i64 0
  ret ptr %arrayidx
}

; Function Attrs: mustprogress uwtable
define internal void @"_ZSt13__invoke_implIvRZN4pbrt10ParseFilesEPNS0_12ParserTargetEN4pstd4spanIKNSt7__cxx1112basic_stringIcSt11char_traitsIcESaIcEEEEEE3$_0JPKcPKNS0_7FileLocEEET_St14__invoke_otherOT0_DpOT1_"(ptr noundef nonnull align 1 dereferenceable(1) %__f, ptr noundef nonnull align 8 dereferenceable(8) %__args, ptr noundef nonnull align 8 dereferenceable(8) %__args1) #1 {
entry:
  %__f.addr = alloca ptr, align 8
  %__args.addr = alloca ptr, align 8
  %__args.addr2 = alloca ptr, align 8
  store ptr %__f, ptr %__f.addr, align 8
  store ptr %__args, ptr %__args.addr, align 8
  store ptr %__args1, ptr %__args.addr2, align 8
  %0 = load ptr, ptr %__f.addr, align 8
  %1 = load ptr, ptr %__args.addr, align 8
  %2 = load ptr, ptr %1, align 8
  %3 = load ptr, ptr %__args.addr2, align 8
  %4 = load ptr, ptr %3, align 8
  call void @"_ZZN4pbrt10ParseFilesEPNS_12ParserTargetEN4pstd4spanIKNSt7__cxx1112basic_stringIcSt11char_traitsIcESaIcEEEEEENK3$_0clEPKcPKNS_7FileLocE"(ptr noundef nonnull align 1 dereferenceable(1) %0, ptr noundef %2, ptr noundef %4)
  ret void
}

; Function Attrs: mustprogress nounwind uwtable
define internal noundef nonnull align 1 dereferenceable(1) ptr @"_ZNKSt9_Any_data9_M_accessIZN4pbrt10ParseFilesEPNS1_12ParserTargetEN4pstd4spanIKNSt7__cxx1112basic_stringIcSt11char_traitsIcESaIcEEEEEE3$_0EERKT_v"(ptr noundef nonnull align 8 dereferenceable(16) %this) #2 align 2 {
entry:
  %this.addr = alloca ptr, align 8
  store ptr %this, ptr %this.addr, align 8
  %this1 = load ptr, ptr %this.addr, align 8
  %call = call noundef ptr @_ZNKSt9_Any_data9_M_accessEv(ptr noundef nonnull align 8 dereferenceable(16) %this1) #5
  ret ptr %call
}

; Function Attrs: mustprogress uwtable
define internal void @"_ZSt10__invoke_rIvRZN4pbrt10ParseFilesEPNS0_12ParserTargetEN4pstd4spanIKNSt7__cxx1112basic_stringIcSt11char_traitsIcESaIcEEEEEE3$_0JPKcPKNS0_7FileLocEEENSt9enable_ifIX16is_invocable_r_vIT_T0_DpT1_EESL_E4typeEOSM_DpOSN_"(ptr noundef nonnull align 1 dereferenceable(1) %__fn, ptr noundef nonnull align 8 dereferenceable(8) %__args, ptr noundef nonnull align 8 dereferenceable(8) %__args1) #1 {
entry:
  %__fn.addr = alloca ptr, align 8
  %__args.addr = alloca ptr, align 8
  %__args.addr2 = alloca ptr, align 8
  store ptr %__fn, ptr %__fn.addr, align 8
  store ptr %__args, ptr %__args.addr, align 8
  store ptr %__args1, ptr %__args.addr2, align 8
  %0 = load ptr, ptr %__fn.addr, align 8
  %1 = load ptr, ptr %__args.addr, align 8
  %2 = load ptr, ptr %__args.addr2, align 8
  call void @"_ZSt13__invoke_implIvRZN4pbrt10ParseFilesEPNS0_12ParserTargetEN4pstd4spanIKNSt7__cxx1112basic_stringIcSt11char_traitsIcESaIcEEEEEE3$_0JPKcPKNS0_7FileLocEEET_St14__invoke_otherOT0_DpOT1_"(ptr noundef nonnull align 1 dereferenceable(1) %0, ptr noundef nonnull align 8 dereferenceable(8) %1, ptr noundef nonnull align 8 dereferenceable(8) %2)
  ret void
}

; Function Attrs: mustprogress nounwind uwtable
define internal noundef ptr @"_ZNSt14_Function_base13_Base_managerIZN4pbrt10ParseFilesEPNS1_12ParserTargetEN4pstd4spanIKNSt7__cxx1112basic_stringIcSt11char_traitsIcESaIcEEEEEE3$_0E14_M_get_pointerERKSt9_Any_data"(ptr noundef nonnull align 8 dereferenceable(16) %__source) #2 align 2 {
entry:
  %__source.addr = alloca ptr, align 8
  %__f = alloca ptr, align 8
  store ptr %__source, ptr %__source.addr, align 8
  %0 = load ptr, ptr %__source.addr, align 8
  %call = call noundef nonnull align 1 dereferenceable(1) ptr @"_ZNKSt9_Any_data9_M_accessIZN4pbrt10ParseFilesEPNS1_12ParserTargetEN4pstd4spanIKNSt7__cxx1112basic_stringIcSt11char_traitsIcESaIcEEEEEE3$_0EERKT_v"(ptr noundef nonnull align 8 dereferenceable(16) %0) #5
  store ptr %call, ptr %__f, align 8
  %1 = load ptr, ptr %__f, align 8
  ret ptr %1
}

; Function Attrs: mustprogress uwtable
define internal void @"_ZNSt17_Function_handlerIFvPKcPKN4pbrt7FileLocEEZNS2_10ParseFilesEPNS2_12ParserTargetEN4pstd4spanIKNSt7__cxx1112basic_stringIcSt11char_traitsIcESaIcEEEEEE3$_0E9_M_invokeERKSt9_Any_dataOS1_OS5_"(ptr noundef nonnull align 8 dereferenceable(16) %__functor, ptr noundef nonnull align 8 dereferenceable(8) %__args, ptr noundef nonnull align 8 dereferenceable(8) %__args1) #1 align 2 {
entry:
  %__functor.addr = alloca ptr, align 8
  %__args.addr = alloca ptr, align 8
  %__args.addr2 = alloca ptr, align 8
  store ptr %__functor, ptr %__functor.addr, align 8
  store ptr %__args, ptr %__args.addr, align 8
  store ptr %__args1, ptr %__args.addr2, align 8
  %0 = load ptr, ptr %__functor.addr, align 8
  %call = call noundef ptr @"_ZNSt14_Function_base13_Base_managerIZN4pbrt10ParseFilesEPNS1_12ParserTargetEN4pstd4spanIKNSt7__cxx1112basic_stringIcSt11char_traitsIcESaIcEEEEEE3$_0E14_M_get_pointerERKSt9_Any_data"(ptr noundef nonnull align 8 dereferenceable(16) %0) #5
  %1 = load ptr, ptr %__args.addr, align 8
  %2 = load ptr, ptr %__args.addr2, align 8
  call void @"_ZSt10__invoke_rIvRZN4pbrt10ParseFilesEPNS0_12ParserTargetEN4pstd4spanIKNSt7__cxx1112basic_stringIcSt11char_traitsIcESaIcEEEEEE3$_0JPKcPKNS0_7FileLocEEENSt9enable_ifIX16is_invocable_r_vIT_T0_DpT1_EESL_E4typeEOSM_DpOSN_"(ptr noundef nonnull align 1 dereferenceable(1) %call, ptr noundef nonnull align 8 dereferenceable(8) %1, ptr noundef nonnull align 8 dereferenceable(8) %2)
  ret void
}